CCS PCM C Compiler, Version 5.007, 61971               10-Nis-24 18:01

               Filename:   C:\Users\Onur\Documents\GitHub\embedded-system_PIC\wekk-4\4-1\main.lst

               ROM used:   113 words (1%)
                           Largest free fragment is 2048
               RAM used:   6 (2%) at main() level
                           6 (2%) worst case
               Stack used: 0 locations
               Stack size: 8

*
0000:  MOVLW  00
0001:  MOVWF  0A
0002:  GOTO   019
0003:  NOP
.................... #include <main.h> 
.................... #include <16F877A.h> 
.................... //////// Standard Header file for the PIC16F877A device //////////////// 
.................... #device PIC16F877A 
....................  
.................... #list 
....................  
.................... #device ADC=16 
....................  
.................... #FUSES NOWDT                 	//No Watch Dog Timer 
.................... #FUSES NOBROWNOUT            	//No brownout reset 
.................... #FUSES NOLVP                 	//No low voltage prgming, B3(PIC16) or B5(PIC18) used for I/O 
....................  
.................... #use delay(crystal=4000000) 
....................  
....................  
.................... #fuses XT,NOWDT,NOPROTECT,NOBROWNOUT,NOLVP,NOPUT,NOWRT,NODEBUG 
....................  
.................... #use delay(clock=4M) 
0004:  MOVLW  21
0005:  MOVWF  04
0006:  BCF    03.7
0007:  MOVF   00,W
0008:  BTFSC  03.2
0009:  GOTO   018
000A:  MOVLW  01
000B:  MOVWF  78
000C:  CLRF   77
000D:  DECFSZ 77,F
000E:  GOTO   00D
000F:  DECFSZ 78,F
0010:  GOTO   00C
0011:  MOVLW  4A
0012:  MOVWF  77
0013:  DECFSZ 77,F
0014:  GOTO   013
0015:  GOTO   016
0016:  DECFSZ 00,F
0017:  GOTO   00A
0018:  RETURN
....................  
.................... void main() 
0019:  BSF    03.5
001A:  BSF    1F.0
001B:  BSF    1F.1
001C:  BSF    1F.2
001D:  BCF    1F.3
001E:  MOVLW  07
001F:  MOVWF  1C
0020:  BCF    03.7
0021:  MOVLW  1F
0022:  ANDWF  03,F
.................... { 
....................  
....................    set_tris_b(0x00); 
0023:  MOVLW  00
0024:  MOVWF  06
....................    set_tris_d(0x01); //1 buton kullandigimiz icin 0x01 ama 2 buton olsa 0x03 verilmeli 
0025:  MOVLW  01
0026:  MOVWF  08
....................  
....................    output_b(0); //baslangicta tum LED ler sonuk olsun 
0027:  CLRF   06
0028:  BCF    03.5
0029:  CLRF   06
....................     
....................    while(TRUE) 
....................    { 
....................       //TODO: User Code 
....................        
....................       if(input(pin_d0)==1){ 
002A:  BSF    03.5
002B:  BSF    08.0
002C:  BCF    03.5
002D:  BTFSS  08.0
002E:  GOTO   06F
....................       //problem1 : 100ms ile simulator ve LED tepki veremiyor B0-33.pin LED yanmiyor gibi 
....................       // O sebeple 100 ms => 200 ms olarak degistirelim 
....................       output_b(1); 
002F:  BSF    03.5
0030:  CLRF   06
0031:  MOVLW  01
0032:  BCF    03.5
0033:  MOVWF  06
....................       delay_ms(200); 
0034:  MOVLW  C8
0035:  MOVWF  21
0036:  CALL   004
....................       output_b(2); 
0037:  BSF    03.5
0038:  CLRF   06
0039:  MOVLW  02
003A:  BCF    03.5
003B:  MOVWF  06
....................       delay_ms(200); 
003C:  MOVLW  C8
003D:  MOVWF  21
003E:  CALL   004
....................       output_b(4); 
003F:  BSF    03.5
0040:  CLRF   06
0041:  MOVLW  04
0042:  BCF    03.5
0043:  MOVWF  06
....................       delay_ms(200); 
0044:  MOVLW  C8
0045:  MOVWF  21
0046:  CALL   004
....................       output_b(8); 
0047:  BSF    03.5
0048:  CLRF   06
0049:  MOVLW  08
004A:  BCF    03.5
004B:  MOVWF  06
....................       delay_ms(200); 
004C:  MOVLW  C8
004D:  MOVWF  21
004E:  CALL   004
....................       output_b(16); 
004F:  BSF    03.5
0050:  CLRF   06
0051:  MOVLW  10
0052:  BCF    03.5
0053:  MOVWF  06
....................       delay_ms(200); 
0054:  MOVLW  C8
0055:  MOVWF  21
0056:  CALL   004
....................       output_b(32); 
0057:  BSF    03.5
0058:  CLRF   06
0059:  MOVLW  20
005A:  BCF    03.5
005B:  MOVWF  06
....................       delay_ms(200); 
005C:  MOVLW  C8
005D:  MOVWF  21
005E:  CALL   004
....................       output_b(64); 
005F:  BSF    03.5
0060:  CLRF   06
0061:  MOVLW  40
0062:  BCF    03.5
0063:  MOVWF  06
....................       delay_ms(200); 
0064:  MOVLW  C8
0065:  MOVWF  21
0066:  CALL   004
....................       output_b(128); 
0067:  BSF    03.5
0068:  CLRF   06
0069:  MOVLW  80
006A:  BCF    03.5
006B:  MOVWF  06
....................       delay_ms(200); 
006C:  MOVLW  C8
006D:  MOVWF  21
006E:  CALL   004
....................        
....................    } 
006F:  GOTO   02A
....................  
.................... } 
.................... } 
....................  
0070:  SLEEP
....................  

Configuration Fuses:
   Word  1: 3F39   XT NOWDT NOPUT NOBROWNOUT NOLVP NOCPD NOWRT NODEBUG NOPROTECT
