CCS PCM C Compiler, Version 5.007, 61971               10-Nis-24 18:35

               Filename:   C:\Users\Onur\Documents\GitHub\embedded-system_PIC\wekk-4\4-1_2_dongu-tekbutton\main.lst

               ROM used:   84 words (1%)
                           Largest free fragment is 2048
               RAM used:   6 (2%) at main() level
                           9 (2%) worst case
               Stack used: 0 locations
               Stack size: 8

*
0000:  MOVLW  00
0001:  MOVWF  0A
0002:  GOTO   019
0003:  NOP
.................... #include <main.h> 
.................... #include <16F877A.h> 
.................... //////// Standard Header file for the PIC16F877A device //////////////// 
.................... #device PIC16F877A 
....................  
.................... #list 
....................  
.................... #device ADC=16 
....................  
.................... #FUSES NOWDT                 	//No Watch Dog Timer 
.................... #FUSES NOBROWNOUT            	//No brownout reset 
.................... #FUSES NOLVP                 	//No low voltage prgming, B3(PIC16) or B5(PIC18) used for I/O 
....................  
.................... #use delay(crystal=4000000) 
....................  
....................  
.................... #fuses XT,NOWDT,NOPROTECT,NOBROWNOUT,NOLVP,NOPUT,NOWRT,NODEBUG 
....................  
.................... #use delay(clock=4M) 
0004:  MOVLW  24
0005:  MOVWF  04
0006:  BCF    03.7
0007:  MOVF   00,W
0008:  BTFSC  03.2
0009:  GOTO   018
000A:  MOVLW  01
000B:  MOVWF  78
000C:  CLRF   77
000D:  DECFSZ 77,F
000E:  GOTO   00D
000F:  DECFSZ 78,F
0010:  GOTO   00C
0011:  MOVLW  4A
0012:  MOVWF  77
0013:  DECFSZ 77,F
0014:  GOTO   013
0015:  GOTO   016
0016:  DECFSZ 00,F
0017:  GOTO   00A
0018:  RETURN
....................  
.................... void main() 
0019:  BSF    03.5
001A:  BSF    1F.0
001B:  BSF    1F.1
001C:  BSF    1F.2
001D:  BCF    1F.3
001E:  MOVLW  07
001F:  MOVWF  1C
0020:  BCF    03.7
0021:  MOVLW  1F
0022:  ANDWF  03,F
.................... { 
....................  
....................    set_tris_b(0x00); 
0023:  MOVLW  00
0024:  MOVWF  06
....................    set_tris_d(0x01); //1 buton kullandigimiz icin 0x01 ama 2 buton olsa 0x03 verilmeli 
0025:  MOVLW  01
0026:  MOVWF  08
....................    int x=1; 
0027:  BCF    03.5
0028:  MOVWF  21
....................    output_b(0); //baslangicta tum LED ler sonuk olsun 
0029:  BSF    03.5
002A:  CLRF   06
002B:  BCF    03.5
002C:  CLRF   06
....................     
....................    while(TRUE) 
....................    { 
....................       //TODO: User Code 
....................        
....................       if(input(pin_d0)==1){ 
002D:  BSF    03.5
002E:  BSF    08.0
002F:  BCF    03.5
0030:  BTFSS  08.0
0031:  GOTO   052
....................       //problem1 : 100ms ile simulator ve LED tepki veremiyor B0-33.pin LED yanmiyor gibi 
....................       // O sebeple 100 ms => 200 ms olarak degistirelim 
....................      
....................     /* 
....................      
....................     // Problem 1  
....................      
....................      for(k=1;k<128;k++) 
....................      { 
....................      output_b(k); 
....................      delay_ms(200); 
....................      k=k*2; 
....................      } 
....................     */ 
....................      
....................     //Problem 2 -> devre butona 1 kere basinca calisiyor sadece , bir daha calismiyor 
....................     // B0-B7 tum ledleri yakabiliyoruz ama bir kez. 
....................     // k degerinin sifirlanmamasiyla alakali sanirim 
....................      
....................     /* 
....................      for(k=1;k<256;k=k*2) 
....................      { 
....................      output_b(k); 
....................      delay_ms(200); 
....................      } 
....................      */ 
....................      for(int k=0;k<8;k++) 
0032:  CLRF   22
0033:  MOVF   22,W
0034:  SUBLW  07
0035:  BTFSS  03.0
0036:  GOTO   043
....................      { 
....................      output_b(x); 
0037:  BSF    03.5
0038:  CLRF   06
0039:  BCF    03.5
003A:  MOVF   21,W
003B:  MOVWF  06
....................      delay_ms(200); 
003C:  MOVLW  C8
003D:  MOVWF  24
003E:  CALL   004
....................      x=x*2; 
003F:  BCF    03.0
0040:  RLF    21,F
0041:  INCF   22,F
0042:  GOTO   033
....................      } 
....................       k=0; 
0043:  CLRF   22
....................       x=1; 
0044:  MOVLW  01
0045:  MOVWF  21
....................       output_b(x); 
0046:  BSF    03.5
0047:  CLRF   06
0048:  BCF    03.5
0049:  MOVF   21,W
004A:  MOVWF  06
....................       delay_ms(500); 
004B:  MOVLW  02
004C:  MOVWF  23
004D:  MOVLW  FA
004E:  MOVWF  24
004F:  CALL   004
0050:  DECFSZ 23,F
0051:  GOTO   04D
....................       
....................       
....................    } 
0052:  GOTO   02D
....................  
.................... } 
.................... } 
....................  
0053:  SLEEP
....................  

Configuration Fuses:
   Word  1: 3F39   XT NOWDT NOPUT NOBROWNOUT NOLVP NOCPD NOWRT NODEBUG NOPROTECT
