CCS PCM C Compiler, Version 5.007, 61971               12-Nis-24 16:23

               Filename:   C:\Users\Onur\Documents\GitHub\embedded-system_PIC\week-6\w6_4-timerint\main.lst

               ROM used:   111 words (1%)
                           Largest free fragment is 2048
               RAM used:   13 (4%) at main() level
                           13 (4%) worst case
               Stack used: 1 locations (0 in main + 1 for interrupts)
               Stack size: 8

*
0000:  MOVLW  00
0001:  MOVWF  0A
0002:  GOTO   040
0003:  NOP
0004:  MOVWF  7F
0005:  SWAPF  03,W
0006:  CLRF   03
0007:  MOVWF  21
0008:  MOVF   0A,W
0009:  MOVWF  20
000A:  CLRF   0A
000B:  MOVF   04,W
000C:  MOVWF  22
000D:  MOVF   77,W
000E:  MOVWF  23
000F:  MOVF   78,W
0010:  MOVWF  24
0011:  MOVF   79,W
0012:  MOVWF  25
0013:  MOVF   7A,W
0014:  MOVWF  26
0015:  BCF    03.7
0016:  BCF    03.5
0017:  BTFSS  0B.5
0018:  GOTO   01B
0019:  BTFSC  0B.2
001A:  GOTO   02C
001B:  MOVF   22,W
001C:  MOVWF  04
001D:  MOVF   23,W
001E:  MOVWF  77
001F:  MOVF   24,W
0020:  MOVWF  78
0021:  MOVF   25,W
0022:  MOVWF  79
0023:  MOVF   26,W
0024:  MOVWF  7A
0025:  MOVF   20,W
0026:  MOVWF  0A
0027:  SWAPF  21,W
0028:  MOVWF  03
0029:  SWAPF  7F,F
002A:  SWAPF  7F,W
002B:  RETFIE
002C:  BCF    0A.3
002D:  BCF    0A.4
002E:  GOTO   02F
.................... #include <main.h> 
.................... #include <16F877A.h> 
.................... //////// Standard Header file for the PIC16F877A device //////////////// 
.................... #device PIC16F877A 
....................  
.................... #list 
....................  
.................... #device ADC=16 
....................  
.................... #FUSES NOWDT                 	//No Watch Dog Timer 
.................... #FUSES NOBROWNOUT            	//No brownout reset 
.................... #FUSES NOLVP                 	//No low voltage prgming, B3(PIC16) or B5(PIC18) used for I/O 
....................  
.................... #use delay(crystal=4000000) 
....................  
....................  
.................... #fuses XT,NOWDT,NOPROTECT,NOBROWNOUT,NOLVP,NOPUT,NOWRT,NODEBUG 
....................  
.................... #use delay(clock=4M) 
....................  
.................... #use fast_io(b) 
....................  
.................... int sayi=0; 
....................  
.................... #int_timer0 
....................  
.................... void timer0_kesme(){ 
....................    //set_timer(200),(254) falan yaparsan daha hizli yanip sonecektir, 256 daha hizli ulasacak. 
....................    set_timer0(60); //60-256'ya ulasmaya calisacak 
002F:  MOVLW  3C
0030:  MOVWF  01
....................    sayi++; 
0031:  INCF   27,F
....................    if(sayi==10)output_high(pin_b0); 
0032:  MOVF   27,W
0033:  SUBLW  0A
0034:  BTFSC  03.2
0035:  BSF    06.0
....................    if(sayi==20){ 
0036:  MOVF   27,W
0037:  SUBLW  14
0038:  BTFSS  03.2
0039:  GOTO   03C
....................       output_b(0x00); 
003A:  CLRF   06
....................       sayi=0; 
003B:  CLRF   27
....................    } 
003C:  BCF    0B.2
003D:  BCF    0A.3
003E:  BCF    0A.4
003F:  GOTO   01B
.................... } 
....................  
.................... void main() 
0040:  CLRF   27
0041:  BSF    03.5
0042:  BSF    1F.0
0043:  BSF    1F.1
0044:  BSF    1F.2
0045:  BCF    1F.3
0046:  MOVLW  07
0047:  MOVWF  1C
0048:  BCF    03.7
0049:  MOVLW  1F
004A:  ANDWF  03,F
.................... { 
....................    setup_psp(PSP_DISABLED); 
004B:  BCF    09.4
....................    setup_timer_1(T1_DISABLED); 
004C:  BCF    03.5
004D:  CLRF   10
....................    setup_timer_2(T2_DISABLED,0,1); 
004E:  MOVLW  00
004F:  MOVWF  78
0050:  MOVWF  12
0051:  MOVLW  00
0052:  BSF    03.5
0053:  MOVWF  12
....................    setup_adc_ports(NO_ANALOGS); 
0054:  BSF    1F.0
0055:  BSF    1F.1
0056:  BSF    1F.2
0057:  BCF    1F.3
....................    setup_adc(ADC_OFF); 
0058:  BCF    03.5
0059:  BCF    1F.0
....................     
....................    setup_CCP1(CCP_OFF); 
005A:  MOVLW  F0
005B:  ANDWF  17,F
....................    setup_CCP2(CCP_OFF); 
005C:  ANDWF  1D,F
....................  
....................    set_tris_b(0x00); 
005D:  MOVLW  00
005E:  BSF    03.5
005F:  MOVWF  06
....................    output_b(0x00); 
0060:  BCF    03.5
0061:  CLRF   06
....................     
....................    //division orani=1 , 1 er 1 er artacak 60 -> 256'ya gidecek. 
....................    setup_timer_0(RTCC_INTERNAL|RTCC_DIV_256);  
0062:  BSF    03.5
0063:  MOVF   01,W
0064:  ANDLW  C0
0065:  IORLW  07
0066:  MOVWF  01
....................    set_timer0(60); 
0067:  MOVLW  3C
0068:  BCF    03.5
0069:  MOVWF  01
....................    //set_timer(200),(254) falan yaparsan daha hizli yanip sonecektir, 256 daha hizli ulasacak. 
....................     
....................     
....................    enable_interrupts(INT_timer0); 
006A:  BSF    0B.5
....................    enable_interrupts(GLOBAL); 
006B:  MOVLW  C0
006C:  IORWF  0B,F
....................  
....................  
....................    while(TRUE){} 
006D:  GOTO   06D
....................  
.................... } 
006E:  SLEEP

Configuration Fuses:
   Word  1: 3F39   XT NOWDT NOPUT NOBROWNOUT NOLVP NOCPD NOWRT NODEBUG NOPROTECT
