CCS PCM C Compiler, Version 5.007, 61971               10-Nis-24 19:33

               Filename:   C:\Users\Onur\Documents\GitHub\embedded-system_PIC\wekk-4\4-1_3_button2pdf\main.lst

               ROM used:   97 words (1%)
                           Largest free fragment is 2048
               RAM used:   6 (2%) at main() level
                           8 (2%) worst case
               Stack used: 0 locations
               Stack size: 8

*
0000:  MOVLW  00
0001:  MOVWF  0A
0002:  GOTO   019
0003:  NOP
.................... #include <main.h> 
.................... #include <16F877A.h> 
.................... //////// Standard Header file for the PIC16F877A device //////////////// 
.................... #device PIC16F877A 
....................  
.................... #list 
....................  
.................... #device ADC=16 
....................  
.................... #FUSES NOWDT                 	//No Watch Dog Timer 
.................... #FUSES NOBROWNOUT            	//No brownout reset 
.................... #FUSES NOLVP                 	//No low voltage prgming, B3(PIC16) or B5(PIC18) used for I/O 
....................  
.................... #use delay(crystal=4000000) 
....................  
....................  
.................... #fuses XT,NOWDT,NOPROTECT,NOBROWNOUT,NOLVP,NOPUT,NOWRT,NODEBUG 
....................  
.................... #use delay(clock=4M) 
0004:  MOVLW  23
0005:  MOVWF  04
0006:  BCF    03.7
0007:  MOVF   00,W
0008:  BTFSC  03.2
0009:  GOTO   018
000A:  MOVLW  01
000B:  MOVWF  78
000C:  CLRF   77
000D:  DECFSZ 77,F
000E:  GOTO   00D
000F:  DECFSZ 78,F
0010:  GOTO   00C
0011:  MOVLW  4A
0012:  MOVWF  77
0013:  DECFSZ 77,F
0014:  GOTO   013
0015:  GOTO   016
0016:  DECFSZ 00,F
0017:  GOTO   00A
0018:  RETURN
....................  
.................... void main() 
0019:  BSF    03.5
001A:  BSF    1F.0
001B:  BSF    1F.1
001C:  BSF    1F.2
001D:  BCF    1F.3
001E:  MOVLW  07
001F:  MOVWF  1C
0020:  BCF    03.7
0021:  MOVLW  1F
0022:  ANDWF  03,F
.................... { 
....................  
....................    set_tris_b(0x00); 
0023:  MOVLW  00
0024:  MOVWF  06
....................    set_tris_d(0x03); //2 buton var artik o yüzden 0x03 verildi 
0025:  MOVLW  03
0026:  MOVWF  08
....................    int x=1; 
0027:  MOVLW  01
0028:  BCF    03.5
0029:  MOVWF  21
....................    output_b(0); //baslangicta tum LED ler sonuk olsun 
002A:  BSF    03.5
002B:  CLRF   06
002C:  BCF    03.5
002D:  CLRF   06
....................     
....................     
....................    while(TRUE) 
....................    { 
....................       //TODO: User Code 
....................     
....................       if(input(pin_d0)==1){ 
002E:  BSF    03.5
002F:  BSF    08.0
0030:  BCF    03.5
0031:  BTFSS  08.0
0032:  GOTO   047
....................             x=x*2; 
0033:  BCF    03.0
0034:  RLF    21,F
....................             output_b(x); 
0035:  BSF    03.5
0036:  CLRF   06
0037:  BCF    03.5
0038:  MOVF   21,W
0039:  MOVWF  06
....................             //200 ms ile butona seri seri basmam 200ms den daha hizli o yuzden 
....................             //LEDler 2-3 lü atlayarak yaniyor bu gecikmeyi artiralim 
....................             //delay_ms(200); 
....................             delay_ms(500); 
003A:  MOVLW  02
003B:  MOVWF  22
003C:  MOVLW  FA
003D:  MOVWF  23
003E:  CALL   004
003F:  DECFSZ 22,F
0040:  GOTO   03C
....................             if(x==256){x=128;} 
0041:  MOVF   21,W
0042:  SUBLW  00
0043:  BTFSS  03.2
0044:  GOTO   047
0045:  MOVLW  80
0046:  MOVWF  21
....................       } 
....................        
....................       if(input(pin_d1)==1){ 
0047:  BSF    03.5
0048:  BSF    08.1
0049:  BCF    03.5
004A:  BTFSS  08.1
004B:  GOTO   05F
....................          x=x/2; 
004C:  BCF    03.0
004D:  RRF    21,F
....................          output_b(x); 
004E:  BSF    03.5
004F:  CLRF   06
0050:  BCF    03.5
0051:  MOVF   21,W
0052:  MOVWF  06
....................          //delay_ms(200); 
....................          delay_ms(500); 
0053:  MOVLW  02
0054:  MOVWF  22
0055:  MOVLW  FA
0056:  MOVWF  23
0057:  CALL   004
0058:  DECFSZ 22,F
0059:  GOTO   055
....................          if(x<1){x=1;} 
005A:  MOVF   21,F
005B:  BTFSS  03.2
005C:  GOTO   05F
005D:  MOVLW  01
005E:  MOVWF  21
....................       } 
005F:  GOTO   02E
....................    } 
.................... } 
....................     
0060:  SLEEP
....................  
....................  
....................  
....................  

Configuration Fuses:
   Word  1: 3F39   XT NOWDT NOPUT NOBROWNOUT NOLVP NOCPD NOWRT NODEBUG NOPROTECT
