CCS PCM C Compiler, Version 5.007, 61971               12-Nis-24 15:13

               Filename:   C:\Users\Onur\Documents\GitHub\embedded-system_PIC\week-6\w6_3-interrupt\main.lst

               ROM used:   94 words (1%)
                           Largest free fragment is 2048
               RAM used:   12 (3%) at main() level
                           12 (3%) worst case
               Stack used: 1 locations (0 in main + 1 for interrupts)
               Stack size: 8

*
0000:  MOVLW  00
0001:  MOVWF  0A
0002:  GOTO   034
0003:  NOP
0004:  MOVWF  7F
0005:  SWAPF  03,W
0006:  CLRF   03
0007:  MOVWF  21
0008:  MOVF   0A,W
0009:  MOVWF  20
000A:  CLRF   0A
000B:  MOVF   04,W
000C:  MOVWF  22
000D:  MOVF   77,W
000E:  MOVWF  23
000F:  MOVF   78,W
0010:  MOVWF  24
0011:  MOVF   79,W
0012:  MOVWF  25
0013:  MOVF   7A,W
0014:  MOVWF  26
0015:  BCF    03.7
0016:  BCF    03.5
0017:  BTFSS  0B.4
0018:  GOTO   01B
0019:  BTFSC  0B.1
001A:  GOTO   02C
001B:  MOVF   22,W
001C:  MOVWF  04
001D:  MOVF   23,W
001E:  MOVWF  77
001F:  MOVF   24,W
0020:  MOVWF  78
0021:  MOVF   25,W
0022:  MOVWF  79
0023:  MOVF   26,W
0024:  MOVWF  7A
0025:  MOVF   20,W
0026:  MOVWF  0A
0027:  SWAPF  21,W
0028:  MOVWF  03
0029:  SWAPF  7F,F
002A:  SWAPF  7F,W
002B:  RETFIE
002C:  BCF    0A.3
002D:  BCF    0A.4
002E:  GOTO   02F
.................... #include <main.h> 
.................... #include <16F877A.h> 
.................... //////// Standard Header file for the PIC16F877A device //////////////// 
.................... #device PIC16F877A 
....................  
.................... #list 
....................  
.................... #device ADC=16 
....................  
.................... #FUSES NOWDT                 	//No Watch Dog Timer 
.................... #FUSES NOBROWNOUT            	//No brownout reset 
.................... #FUSES NOLVP                 	//No low voltage prgming, B3(PIC16) or B5(PIC18) used for I/O 
....................  
.................... #use delay(crystal=4000000) 
....................  
....................  
.................... #fuses XT,NOWDT,NOPROTECT,NOBROWNOUT,NOLVP,NOPUT,NOWRT,NODEBUG 
....................  
.................... #use delay(clock=4M) 
....................  
.................... #use fast_io(b) 
.................... #int_ext 
....................  
.................... void dis_kesme(){ 
....................    output_b(0x00); 
002F:  CLRF   06
0030:  BCF    0B.1
0031:  BCF    0A.3
0032:  BCF    0A.4
0033:  GOTO   01B
.................... } 
....................  
.................... void main() 
0034:  BSF    03.5
0035:  BSF    1F.0
0036:  BSF    1F.1
0037:  BSF    1F.2
0038:  BCF    1F.3
0039:  MOVLW  07
003A:  MOVWF  1C
003B:  BCF    03.7
003C:  MOVLW  1F
003D:  ANDWF  03,F
.................... { 
....................    setup_psp(PSP_DISABLED); 
003E:  BCF    09.4
....................    setup_timer_1(T1_DISABLED); 
003F:  BCF    03.5
0040:  CLRF   10
....................    setup_timer_2(T2_DISABLED,0,1); 
0041:  MOVLW  00
0042:  MOVWF  78
0043:  MOVWF  12
0044:  MOVLW  00
0045:  BSF    03.5
0046:  MOVWF  12
....................    setup_adc_ports(NO_ANALOGS); 
0047:  BSF    1F.0
0048:  BSF    1F.1
0049:  BSF    1F.2
004A:  BCF    1F.3
....................    setup_adc(ADC_OFF); 
004B:  BCF    03.5
004C:  BCF    1F.0
....................     
....................    setup_CCP1(CCP_OFF); 
004D:  MOVLW  F0
004E:  ANDWF  17,F
....................    setup_CCP2(CCP_OFF); 
004F:  ANDWF  1D,F
....................  
....................    set_tris_b(0x01); 
0050:  MOVLW  01
0051:  BSF    03.5
0052:  MOVWF  06
....................    output_b(0x02); 
0053:  MOVLW  02
0054:  BCF    03.5
0055:  MOVWF  06
....................     
....................    //butona bastiktan ve elini cektikten sonra interrupt devreye girer, led soner 
....................    //ext_int_edge(H_TO_L); 
....................    ext_int_edge(L_TO_H); 
0056:  BSF    03.5
0057:  BSF    01.6
....................    //butona bastigin anda interrupt devreye girer ve LED soner 
....................     
....................    enable_interrupts(INT_EXT); 
0058:  BCF    03.5
0059:  BSF    0B.4
....................    enable_interrupts(GLOBAL); 
005A:  MOVLW  C0
005B:  IORWF  0B,F
....................  
....................  
....................    while(TRUE){} 
005C:  GOTO   05C
....................  
.................... } 
005D:  SLEEP

Configuration Fuses:
   Word  1: 3F39   XT NOWDT NOPUT NOBROWNOUT NOLVP NOCPD NOWRT NODEBUG NOPROTECT
